ARM GAS  C:\Users\ADMINI~1\AppData\Local\Temp\ccVh1Yxd.s 			page 1


   1              		.cpu cortex-m4
   2              		.arch armv7e-m
   3              		.fpu fpv4-sp-d16
   4              		.eabi_attribute 27, 1
   5              		.eabi_attribute 28, 1
   6              		.eabi_attribute 20, 1
   7              		.eabi_attribute 21, 1
   8              		.eabi_attribute 23, 3
   9              		.eabi_attribute 24, 1
  10              		.eabi_attribute 25, 1
  11              		.eabi_attribute 26, 1
  12              		.eabi_attribute 30, 1
  13              		.eabi_attribute 34, 1
  14              		.eabi_attribute 18, 4
  15              		.file	"tim.c"
  16              		.text
  17              	.Ltext0:
  18              		.cfi_sections	.debug_frame
  19              		.section	.text.HAL_TIM_Base_MspInit,"ax",%progbits
  20              		.align	1
  21              		.global	HAL_TIM_Base_MspInit
  22              		.syntax unified
  23              		.thumb
  24              		.thumb_func
  26              	HAL_TIM_Base_MspInit:
  27              	.LVL0:
  28              	.LFB135:
  29              		.file 1 "Core/Src/tim.c"
   1:Core/Src/tim.c **** /* USER CODE BEGIN Header */
   2:Core/Src/tim.c **** /**
   3:Core/Src/tim.c ****   ******************************************************************************
   4:Core/Src/tim.c ****   * @file    tim.c
   5:Core/Src/tim.c ****   * @brief   This file provides code for the configuration
   6:Core/Src/tim.c ****   *          of the TIM instances.
   7:Core/Src/tim.c ****   ******************************************************************************
   8:Core/Src/tim.c ****   * @attention
   9:Core/Src/tim.c ****   *
  10:Core/Src/tim.c ****   * Copyright (c) 2025 STMicroelectronics.
  11:Core/Src/tim.c ****   * All rights reserved.
  12:Core/Src/tim.c ****   *
  13:Core/Src/tim.c ****   * This software is licensed under terms that can be found in the LICENSE file
  14:Core/Src/tim.c ****   * in the root directory of this software component.
  15:Core/Src/tim.c ****   * If no LICENSE file comes with this software, it is provided AS-IS.
  16:Core/Src/tim.c ****   *
  17:Core/Src/tim.c ****   ******************************************************************************
  18:Core/Src/tim.c ****   */
  19:Core/Src/tim.c **** /* USER CODE END Header */
  20:Core/Src/tim.c **** /* Includes ------------------------------------------------------------------*/
  21:Core/Src/tim.c **** #include "tim.h"
  22:Core/Src/tim.c **** 
  23:Core/Src/tim.c **** /* USER CODE BEGIN 0 */
  24:Core/Src/tim.c **** 
  25:Core/Src/tim.c **** /* USER CODE END 0 */
  26:Core/Src/tim.c **** 
  27:Core/Src/tim.c **** TIM_HandleTypeDef htim3;
  28:Core/Src/tim.c **** 
  29:Core/Src/tim.c **** /* TIM3 init function */
ARM GAS  C:\Users\ADMINI~1\AppData\Local\Temp\ccVh1Yxd.s 			page 2


  30:Core/Src/tim.c **** void MX_TIM3_Init(void)
  31:Core/Src/tim.c **** {
  32:Core/Src/tim.c **** 
  33:Core/Src/tim.c ****   /* USER CODE BEGIN TIM3_Init 0 */
  34:Core/Src/tim.c **** 
  35:Core/Src/tim.c ****   /* USER CODE END TIM3_Init 0 */
  36:Core/Src/tim.c **** 
  37:Core/Src/tim.c ****   TIM_ClockConfigTypeDef sClockSourceConfig = {0};
  38:Core/Src/tim.c ****   TIM_MasterConfigTypeDef sMasterConfig = {0};
  39:Core/Src/tim.c ****   TIM_OC_InitTypeDef sConfigOC = {0};
  40:Core/Src/tim.c **** 
  41:Core/Src/tim.c ****   /* USER CODE BEGIN TIM3_Init 1 */
  42:Core/Src/tim.c **** 
  43:Core/Src/tim.c ****   /* USER CODE END TIM3_Init 1 */
  44:Core/Src/tim.c ****   htim3.Instance = TIM3;
  45:Core/Src/tim.c ****   htim3.Init.Prescaler = 42-1;
  46:Core/Src/tim.c ****   htim3.Init.CounterMode = TIM_COUNTERMODE_UP;
  47:Core/Src/tim.c ****   htim3.Init.Period = 40000-1;
  48:Core/Src/tim.c ****   htim3.Init.ClockDivision = TIM_CLOCKDIVISION_DIV1;
  49:Core/Src/tim.c ****   htim3.Init.AutoReloadPreload = TIM_AUTORELOAD_PRELOAD_DISABLE;
  50:Core/Src/tim.c ****   if (HAL_TIM_Base_Init(&htim3) != HAL_OK)
  51:Core/Src/tim.c ****   {
  52:Core/Src/tim.c ****     Error_Handler();
  53:Core/Src/tim.c ****   }
  54:Core/Src/tim.c ****   sClockSourceConfig.ClockSource = TIM_CLOCKSOURCE_INTERNAL;
  55:Core/Src/tim.c ****   if (HAL_TIM_ConfigClockSource(&htim3, &sClockSourceConfig) != HAL_OK)
  56:Core/Src/tim.c ****   {
  57:Core/Src/tim.c ****     Error_Handler();
  58:Core/Src/tim.c ****   }
  59:Core/Src/tim.c ****   if (HAL_TIM_PWM_Init(&htim3) != HAL_OK)
  60:Core/Src/tim.c ****   {
  61:Core/Src/tim.c ****     Error_Handler();
  62:Core/Src/tim.c ****   }
  63:Core/Src/tim.c ****   sMasterConfig.MasterOutputTrigger = TIM_TRGO_RESET;
  64:Core/Src/tim.c ****   sMasterConfig.MasterSlaveMode = TIM_MASTERSLAVEMODE_DISABLE;
  65:Core/Src/tim.c ****   if (HAL_TIMEx_MasterConfigSynchronization(&htim3, &sMasterConfig) != HAL_OK)
  66:Core/Src/tim.c ****   {
  67:Core/Src/tim.c ****     Error_Handler();
  68:Core/Src/tim.c ****   }
  69:Core/Src/tim.c ****   sConfigOC.OCMode = TIM_OCMODE_PWM1;
  70:Core/Src/tim.c ****   sConfigOC.Pulse = 0;
  71:Core/Src/tim.c ****   sConfigOC.OCPolarity = TIM_OCPOLARITY_HIGH;
  72:Core/Src/tim.c ****   sConfigOC.OCFastMode = TIM_OCFAST_ENABLE;
  73:Core/Src/tim.c ****   if (HAL_TIM_PWM_ConfigChannel(&htim3, &sConfigOC, TIM_CHANNEL_1) != HAL_OK)
  74:Core/Src/tim.c ****   {
  75:Core/Src/tim.c ****     Error_Handler();
  76:Core/Src/tim.c ****   }
  77:Core/Src/tim.c ****   if (HAL_TIM_PWM_ConfigChannel(&htim3, &sConfigOC, TIM_CHANNEL_2) != HAL_OK)
  78:Core/Src/tim.c ****   {
  79:Core/Src/tim.c ****     Error_Handler();
  80:Core/Src/tim.c ****   }
  81:Core/Src/tim.c ****   /* USER CODE BEGIN TIM3_Init 2 */
  82:Core/Src/tim.c **** 
  83:Core/Src/tim.c ****   /* USER CODE END TIM3_Init 2 */
  84:Core/Src/tim.c ****   HAL_TIM_MspPostInit(&htim3);
  85:Core/Src/tim.c **** 
  86:Core/Src/tim.c **** }
ARM GAS  C:\Users\ADMINI~1\AppData\Local\Temp\ccVh1Yxd.s 			page 3


  87:Core/Src/tim.c **** 
  88:Core/Src/tim.c **** void HAL_TIM_Base_MspInit(TIM_HandleTypeDef* tim_baseHandle)
  89:Core/Src/tim.c **** {
  30              		.loc 1 89 1 view -0
  31              		.cfi_startproc
  32              		@ args = 0, pretend = 0, frame = 8
  33              		@ frame_needed = 0, uses_anonymous_args = 0
  34              		@ link register save eliminated.
  90:Core/Src/tim.c **** 
  91:Core/Src/tim.c ****   if(tim_baseHandle->Instance==TIM3)
  35              		.loc 1 91 3 view .LVU1
  36              		.loc 1 91 20 is_stmt 0 view .LVU2
  37 0000 0268     		ldr	r2, [r0]
  38              		.loc 1 91 5 view .LVU3
  39 0002 094B     		ldr	r3, .L8
  40 0004 9A42     		cmp	r2, r3
  41 0006 00D0     		beq	.L7
  42 0008 7047     		bx	lr
  43              	.L7:
  89:Core/Src/tim.c **** 
  44              		.loc 1 89 1 view .LVU4
  45 000a 82B0     		sub	sp, sp, #8
  46              	.LCFI0:
  47              		.cfi_def_cfa_offset 8
  92:Core/Src/tim.c ****   {
  93:Core/Src/tim.c ****   /* USER CODE BEGIN TIM3_MspInit 0 */
  94:Core/Src/tim.c **** 
  95:Core/Src/tim.c ****   /* USER CODE END TIM3_MspInit 0 */
  96:Core/Src/tim.c ****     /* TIM3 clock enable */
  97:Core/Src/tim.c ****     __HAL_RCC_TIM3_CLK_ENABLE();
  48              		.loc 1 97 5 is_stmt 1 view .LVU5
  49              	.LBB2:
  50              		.loc 1 97 5 view .LVU6
  51 000c 0023     		movs	r3, #0
  52 000e 0193     		str	r3, [sp, #4]
  53              		.loc 1 97 5 view .LVU7
  54 0010 064B     		ldr	r3, .L8+4
  55 0012 1A6C     		ldr	r2, [r3, #64]
  56 0014 42F00202 		orr	r2, r2, #2
  57 0018 1A64     		str	r2, [r3, #64]
  58              		.loc 1 97 5 view .LVU8
  59 001a 1B6C     		ldr	r3, [r3, #64]
  60 001c 03F00203 		and	r3, r3, #2
  61 0020 0193     		str	r3, [sp, #4]
  62              		.loc 1 97 5 view .LVU9
  63 0022 019B     		ldr	r3, [sp, #4]
  64              	.LBE2:
  65              		.loc 1 97 5 view .LVU10
  98:Core/Src/tim.c ****   /* USER CODE BEGIN TIM3_MspInit 1 */
  99:Core/Src/tim.c **** 
 100:Core/Src/tim.c ****   /* USER CODE END TIM3_MspInit 1 */
 101:Core/Src/tim.c ****   }
 102:Core/Src/tim.c **** }
  66              		.loc 1 102 1 is_stmt 0 view .LVU11
  67 0024 02B0     		add	sp, sp, #8
  68              	.LCFI1:
  69              		.cfi_def_cfa_offset 0
ARM GAS  C:\Users\ADMINI~1\AppData\Local\Temp\ccVh1Yxd.s 			page 4


  70              		@ sp needed
  71 0026 7047     		bx	lr
  72              	.L9:
  73              		.align	2
  74              	.L8:
  75 0028 00040040 		.word	1073742848
  76 002c 00380240 		.word	1073887232
  77              		.cfi_endproc
  78              	.LFE135:
  80              		.section	.text.HAL_TIM_MspPostInit,"ax",%progbits
  81              		.align	1
  82              		.global	HAL_TIM_MspPostInit
  83              		.syntax unified
  84              		.thumb
  85              		.thumb_func
  87              	HAL_TIM_MspPostInit:
  88              	.LVL1:
  89              	.LFB136:
 103:Core/Src/tim.c **** void HAL_TIM_MspPostInit(TIM_HandleTypeDef* timHandle)
 104:Core/Src/tim.c **** {
  90              		.loc 1 104 1 is_stmt 1 view -0
  91              		.cfi_startproc
  92              		@ args = 0, pretend = 0, frame = 24
  93              		@ frame_needed = 0, uses_anonymous_args = 0
  94              		.loc 1 104 1 is_stmt 0 view .LVU13
  95 0000 00B5     		push	{lr}
  96              	.LCFI2:
  97              		.cfi_def_cfa_offset 4
  98              		.cfi_offset 14, -4
  99 0002 87B0     		sub	sp, sp, #28
 100              	.LCFI3:
 101              		.cfi_def_cfa_offset 32
 105:Core/Src/tim.c **** 
 106:Core/Src/tim.c ****   GPIO_InitTypeDef GPIO_InitStruct = {0};
 102              		.loc 1 106 3 is_stmt 1 view .LVU14
 103              		.loc 1 106 20 is_stmt 0 view .LVU15
 104 0004 0023     		movs	r3, #0
 105 0006 0193     		str	r3, [sp, #4]
 106 0008 0293     		str	r3, [sp, #8]
 107 000a 0393     		str	r3, [sp, #12]
 108 000c 0493     		str	r3, [sp, #16]
 109 000e 0593     		str	r3, [sp, #20]
 107:Core/Src/tim.c ****   if(timHandle->Instance==TIM3)
 110              		.loc 1 107 3 is_stmt 1 view .LVU16
 111              		.loc 1 107 15 is_stmt 0 view .LVU17
 112 0010 0268     		ldr	r2, [r0]
 113              		.loc 1 107 5 view .LVU18
 114 0012 0E4B     		ldr	r3, .L14
 115 0014 9A42     		cmp	r2, r3
 116 0016 02D0     		beq	.L13
 117              	.LVL2:
 118              	.L10:
 108:Core/Src/tim.c ****   {
 109:Core/Src/tim.c ****   /* USER CODE BEGIN TIM3_MspPostInit 0 */
 110:Core/Src/tim.c **** 
 111:Core/Src/tim.c ****   /* USER CODE END TIM3_MspPostInit 0 */
 112:Core/Src/tim.c **** 
ARM GAS  C:\Users\ADMINI~1\AppData\Local\Temp\ccVh1Yxd.s 			page 5


 113:Core/Src/tim.c ****     __HAL_RCC_GPIOA_CLK_ENABLE();
 114:Core/Src/tim.c ****     /**TIM3 GPIO Configuration
 115:Core/Src/tim.c ****     PA6     ------> TIM3_CH1
 116:Core/Src/tim.c ****     PA7     ------> TIM3_CH2
 117:Core/Src/tim.c ****     */
 118:Core/Src/tim.c ****     GPIO_InitStruct.Pin = GPIO_PIN_6|GPIO_PIN_7;
 119:Core/Src/tim.c ****     GPIO_InitStruct.Mode = GPIO_MODE_AF_PP;
 120:Core/Src/tim.c ****     GPIO_InitStruct.Pull = GPIO_NOPULL;
 121:Core/Src/tim.c ****     GPIO_InitStruct.Speed = GPIO_SPEED_FREQ_LOW;
 122:Core/Src/tim.c ****     GPIO_InitStruct.Alternate = GPIO_AF2_TIM3;
 123:Core/Src/tim.c ****     HAL_GPIO_Init(GPIOA, &GPIO_InitStruct);
 124:Core/Src/tim.c **** 
 125:Core/Src/tim.c ****   /* USER CODE BEGIN TIM3_MspPostInit 1 */
 126:Core/Src/tim.c **** 
 127:Core/Src/tim.c ****   /* USER CODE END TIM3_MspPostInit 1 */
 128:Core/Src/tim.c ****   }
 129:Core/Src/tim.c **** 
 130:Core/Src/tim.c **** }
 119              		.loc 1 130 1 view .LVU19
 120 0018 07B0     		add	sp, sp, #28
 121              	.LCFI4:
 122              		.cfi_remember_state
 123              		.cfi_def_cfa_offset 4
 124              		@ sp needed
 125 001a 5DF804FB 		ldr	pc, [sp], #4
 126              	.LVL3:
 127              	.L13:
 128              	.LCFI5:
 129              		.cfi_restore_state
 113:Core/Src/tim.c ****     /**TIM3 GPIO Configuration
 130              		.loc 1 113 5 is_stmt 1 view .LVU20
 131              	.LBB3:
 113:Core/Src/tim.c ****     /**TIM3 GPIO Configuration
 132              		.loc 1 113 5 view .LVU21
 133 001e 0023     		movs	r3, #0
 134 0020 0093     		str	r3, [sp]
 113:Core/Src/tim.c ****     /**TIM3 GPIO Configuration
 135              		.loc 1 113 5 view .LVU22
 136 0022 0B4B     		ldr	r3, .L14+4
 137 0024 1A6B     		ldr	r2, [r3, #48]
 138 0026 42F00102 		orr	r2, r2, #1
 139 002a 1A63     		str	r2, [r3, #48]
 113:Core/Src/tim.c ****     /**TIM3 GPIO Configuration
 140              		.loc 1 113 5 view .LVU23
 141 002c 1B6B     		ldr	r3, [r3, #48]
 142 002e 03F00103 		and	r3, r3, #1
 143 0032 0093     		str	r3, [sp]
 113:Core/Src/tim.c ****     /**TIM3 GPIO Configuration
 144              		.loc 1 113 5 view .LVU24
 145 0034 009B     		ldr	r3, [sp]
 146              	.LBE3:
 113:Core/Src/tim.c ****     /**TIM3 GPIO Configuration
 147              		.loc 1 113 5 view .LVU25
 118:Core/Src/tim.c ****     GPIO_InitStruct.Mode = GPIO_MODE_AF_PP;
 148              		.loc 1 118 5 view .LVU26
 118:Core/Src/tim.c ****     GPIO_InitStruct.Mode = GPIO_MODE_AF_PP;
 149              		.loc 1 118 25 is_stmt 0 view .LVU27
ARM GAS  C:\Users\ADMINI~1\AppData\Local\Temp\ccVh1Yxd.s 			page 6


 150 0036 C023     		movs	r3, #192
 151 0038 0193     		str	r3, [sp, #4]
 119:Core/Src/tim.c ****     GPIO_InitStruct.Pull = GPIO_NOPULL;
 152              		.loc 1 119 5 is_stmt 1 view .LVU28
 119:Core/Src/tim.c ****     GPIO_InitStruct.Pull = GPIO_NOPULL;
 153              		.loc 1 119 26 is_stmt 0 view .LVU29
 154 003a 0223     		movs	r3, #2
 155 003c 0293     		str	r3, [sp, #8]
 120:Core/Src/tim.c ****     GPIO_InitStruct.Speed = GPIO_SPEED_FREQ_LOW;
 156              		.loc 1 120 5 is_stmt 1 view .LVU30
 121:Core/Src/tim.c ****     GPIO_InitStruct.Alternate = GPIO_AF2_TIM3;
 157              		.loc 1 121 5 view .LVU31
 122:Core/Src/tim.c ****     HAL_GPIO_Init(GPIOA, &GPIO_InitStruct);
 158              		.loc 1 122 5 view .LVU32
 122:Core/Src/tim.c ****     HAL_GPIO_Init(GPIOA, &GPIO_InitStruct);
 159              		.loc 1 122 31 is_stmt 0 view .LVU33
 160 003e 0593     		str	r3, [sp, #20]
 123:Core/Src/tim.c **** 
 161              		.loc 1 123 5 is_stmt 1 view .LVU34
 162 0040 01A9     		add	r1, sp, #4
 163 0042 0448     		ldr	r0, .L14+8
 164              	.LVL4:
 123:Core/Src/tim.c **** 
 165              		.loc 1 123 5 is_stmt 0 view .LVU35
 166 0044 FFF7FEFF 		bl	HAL_GPIO_Init
 167              	.LVL5:
 168              		.loc 1 130 1 view .LVU36
 169 0048 E6E7     		b	.L10
 170              	.L15:
 171 004a 00BF     		.align	2
 172              	.L14:
 173 004c 00040040 		.word	1073742848
 174 0050 00380240 		.word	1073887232
 175 0054 00000240 		.word	1073872896
 176              		.cfi_endproc
 177              	.LFE136:
 179              		.section	.text.MX_TIM3_Init,"ax",%progbits
 180              		.align	1
 181              		.global	MX_TIM3_Init
 182              		.syntax unified
 183              		.thumb
 184              		.thumb_func
 186              	MX_TIM3_Init:
 187              	.LFB134:
  31:Core/Src/tim.c **** 
 188              		.loc 1 31 1 is_stmt 1 view -0
 189              		.cfi_startproc
 190              		@ args = 0, pretend = 0, frame = 56
 191              		@ frame_needed = 0, uses_anonymous_args = 0
 192 0000 00B5     		push	{lr}
 193              	.LCFI6:
 194              		.cfi_def_cfa_offset 4
 195              		.cfi_offset 14, -4
 196 0002 8FB0     		sub	sp, sp, #60
 197              	.LCFI7:
 198              		.cfi_def_cfa_offset 64
  37:Core/Src/tim.c ****   TIM_MasterConfigTypeDef sMasterConfig = {0};
ARM GAS  C:\Users\ADMINI~1\AppData\Local\Temp\ccVh1Yxd.s 			page 7


 199              		.loc 1 37 3 view .LVU38
  37:Core/Src/tim.c ****   TIM_MasterConfigTypeDef sMasterConfig = {0};
 200              		.loc 1 37 26 is_stmt 0 view .LVU39
 201 0004 0023     		movs	r3, #0
 202 0006 0A93     		str	r3, [sp, #40]
 203 0008 0B93     		str	r3, [sp, #44]
 204 000a 0C93     		str	r3, [sp, #48]
 205 000c 0D93     		str	r3, [sp, #52]
  38:Core/Src/tim.c ****   TIM_OC_InitTypeDef sConfigOC = {0};
 206              		.loc 1 38 3 is_stmt 1 view .LVU40
  38:Core/Src/tim.c ****   TIM_OC_InitTypeDef sConfigOC = {0};
 207              		.loc 1 38 27 is_stmt 0 view .LVU41
 208 000e 0893     		str	r3, [sp, #32]
 209 0010 0993     		str	r3, [sp, #36]
  39:Core/Src/tim.c **** 
 210              		.loc 1 39 3 is_stmt 1 view .LVU42
  39:Core/Src/tim.c **** 
 211              		.loc 1 39 22 is_stmt 0 view .LVU43
 212 0012 0193     		str	r3, [sp, #4]
 213 0014 0293     		str	r3, [sp, #8]
 214 0016 0393     		str	r3, [sp, #12]
 215 0018 0493     		str	r3, [sp, #16]
 216 001a 0593     		str	r3, [sp, #20]
 217 001c 0693     		str	r3, [sp, #24]
 218 001e 0793     		str	r3, [sp, #28]
  44:Core/Src/tim.c ****   htim3.Init.Prescaler = 42-1;
 219              		.loc 1 44 3 is_stmt 1 view .LVU44
  44:Core/Src/tim.c ****   htim3.Init.Prescaler = 42-1;
 220              		.loc 1 44 18 is_stmt 0 view .LVU45
 221 0020 2648     		ldr	r0, .L30
 222 0022 274A     		ldr	r2, .L30+4
 223 0024 0260     		str	r2, [r0]
  45:Core/Src/tim.c ****   htim3.Init.CounterMode = TIM_COUNTERMODE_UP;
 224              		.loc 1 45 3 is_stmt 1 view .LVU46
  45:Core/Src/tim.c ****   htim3.Init.CounterMode = TIM_COUNTERMODE_UP;
 225              		.loc 1 45 24 is_stmt 0 view .LVU47
 226 0026 2922     		movs	r2, #41
 227 0028 4260     		str	r2, [r0, #4]
  46:Core/Src/tim.c ****   htim3.Init.Period = 40000-1;
 228              		.loc 1 46 3 is_stmt 1 view .LVU48
  46:Core/Src/tim.c ****   htim3.Init.Period = 40000-1;
 229              		.loc 1 46 26 is_stmt 0 view .LVU49
 230 002a 8360     		str	r3, [r0, #8]
  47:Core/Src/tim.c ****   htim3.Init.ClockDivision = TIM_CLOCKDIVISION_DIV1;
 231              		.loc 1 47 3 is_stmt 1 view .LVU50
  47:Core/Src/tim.c ****   htim3.Init.ClockDivision = TIM_CLOCKDIVISION_DIV1;
 232              		.loc 1 47 21 is_stmt 0 view .LVU51
 233 002c 49F63F42 		movw	r2, #39999
 234 0030 C260     		str	r2, [r0, #12]
  48:Core/Src/tim.c ****   htim3.Init.AutoReloadPreload = TIM_AUTORELOAD_PRELOAD_DISABLE;
 235              		.loc 1 48 3 is_stmt 1 view .LVU52
  48:Core/Src/tim.c ****   htim3.Init.AutoReloadPreload = TIM_AUTORELOAD_PRELOAD_DISABLE;
 236              		.loc 1 48 28 is_stmt 0 view .LVU53
 237 0032 0361     		str	r3, [r0, #16]
  49:Core/Src/tim.c ****   if (HAL_TIM_Base_Init(&htim3) != HAL_OK)
 238              		.loc 1 49 3 is_stmt 1 view .LVU54
  49:Core/Src/tim.c ****   if (HAL_TIM_Base_Init(&htim3) != HAL_OK)
ARM GAS  C:\Users\ADMINI~1\AppData\Local\Temp\ccVh1Yxd.s 			page 8


 239              		.loc 1 49 32 is_stmt 0 view .LVU55
 240 0034 8361     		str	r3, [r0, #24]
  50:Core/Src/tim.c ****   {
 241              		.loc 1 50 3 is_stmt 1 view .LVU56
  50:Core/Src/tim.c ****   {
 242              		.loc 1 50 7 is_stmt 0 view .LVU57
 243 0036 FFF7FEFF 		bl	HAL_TIM_Base_Init
 244              	.LVL6:
  50:Core/Src/tim.c ****   {
 245              		.loc 1 50 6 view .LVU58
 246 003a 68BB     		cbnz	r0, .L24
 247              	.L17:
  54:Core/Src/tim.c ****   if (HAL_TIM_ConfigClockSource(&htim3, &sClockSourceConfig) != HAL_OK)
 248              		.loc 1 54 3 is_stmt 1 view .LVU59
  54:Core/Src/tim.c ****   if (HAL_TIM_ConfigClockSource(&htim3, &sClockSourceConfig) != HAL_OK)
 249              		.loc 1 54 34 is_stmt 0 view .LVU60
 250 003c 4FF48053 		mov	r3, #4096
 251 0040 0A93     		str	r3, [sp, #40]
  55:Core/Src/tim.c ****   {
 252              		.loc 1 55 3 is_stmt 1 view .LVU61
  55:Core/Src/tim.c ****   {
 253              		.loc 1 55 7 is_stmt 0 view .LVU62
 254 0042 0AA9     		add	r1, sp, #40
 255 0044 1D48     		ldr	r0, .L30
 256 0046 FFF7FEFF 		bl	HAL_TIM_ConfigClockSource
 257              	.LVL7:
  55:Core/Src/tim.c ****   {
 258              		.loc 1 55 6 view .LVU63
 259 004a 40BB     		cbnz	r0, .L25
 260              	.L18:
  59:Core/Src/tim.c ****   {
 261              		.loc 1 59 3 is_stmt 1 view .LVU64
  59:Core/Src/tim.c ****   {
 262              		.loc 1 59 7 is_stmt 0 view .LVU65
 263 004c 1B48     		ldr	r0, .L30
 264 004e FFF7FEFF 		bl	HAL_TIM_PWM_Init
 265              	.LVL8:
  59:Core/Src/tim.c ****   {
 266              		.loc 1 59 6 view .LVU66
 267 0052 38BB     		cbnz	r0, .L26
 268              	.L19:
  63:Core/Src/tim.c ****   sMasterConfig.MasterSlaveMode = TIM_MASTERSLAVEMODE_DISABLE;
 269              		.loc 1 63 3 is_stmt 1 view .LVU67
  63:Core/Src/tim.c ****   sMasterConfig.MasterSlaveMode = TIM_MASTERSLAVEMODE_DISABLE;
 270              		.loc 1 63 37 is_stmt 0 view .LVU68
 271 0054 0023     		movs	r3, #0
 272 0056 0893     		str	r3, [sp, #32]
  64:Core/Src/tim.c ****   if (HAL_TIMEx_MasterConfigSynchronization(&htim3, &sMasterConfig) != HAL_OK)
 273              		.loc 1 64 3 is_stmt 1 view .LVU69
  64:Core/Src/tim.c ****   if (HAL_TIMEx_MasterConfigSynchronization(&htim3, &sMasterConfig) != HAL_OK)
 274              		.loc 1 64 33 is_stmt 0 view .LVU70
 275 0058 0993     		str	r3, [sp, #36]
  65:Core/Src/tim.c ****   {
 276              		.loc 1 65 3 is_stmt 1 view .LVU71
  65:Core/Src/tim.c ****   {
 277              		.loc 1 65 7 is_stmt 0 view .LVU72
 278 005a 08A9     		add	r1, sp, #32
ARM GAS  C:\Users\ADMINI~1\AppData\Local\Temp\ccVh1Yxd.s 			page 9


 279 005c 1748     		ldr	r0, .L30
 280 005e FFF7FEFF 		bl	HAL_TIMEx_MasterConfigSynchronization
 281              	.LVL9:
  65:Core/Src/tim.c ****   {
 282              		.loc 1 65 6 view .LVU73
 283 0062 10BB     		cbnz	r0, .L27
 284              	.L20:
  69:Core/Src/tim.c ****   sConfigOC.Pulse = 0;
 285              		.loc 1 69 3 is_stmt 1 view .LVU74
  69:Core/Src/tim.c ****   sConfigOC.Pulse = 0;
 286              		.loc 1 69 20 is_stmt 0 view .LVU75
 287 0064 6023     		movs	r3, #96
 288 0066 0193     		str	r3, [sp, #4]
  70:Core/Src/tim.c ****   sConfigOC.OCPolarity = TIM_OCPOLARITY_HIGH;
 289              		.loc 1 70 3 is_stmt 1 view .LVU76
  70:Core/Src/tim.c ****   sConfigOC.OCPolarity = TIM_OCPOLARITY_HIGH;
 290              		.loc 1 70 19 is_stmt 0 view .LVU77
 291 0068 0022     		movs	r2, #0
 292 006a 0292     		str	r2, [sp, #8]
  71:Core/Src/tim.c ****   sConfigOC.OCFastMode = TIM_OCFAST_ENABLE;
 293              		.loc 1 71 3 is_stmt 1 view .LVU78
  71:Core/Src/tim.c ****   sConfigOC.OCFastMode = TIM_OCFAST_ENABLE;
 294              		.loc 1 71 24 is_stmt 0 view .LVU79
 295 006c 0392     		str	r2, [sp, #12]
  72:Core/Src/tim.c ****   if (HAL_TIM_PWM_ConfigChannel(&htim3, &sConfigOC, TIM_CHANNEL_1) != HAL_OK)
 296              		.loc 1 72 3 is_stmt 1 view .LVU80
  72:Core/Src/tim.c ****   if (HAL_TIM_PWM_ConfigChannel(&htim3, &sConfigOC, TIM_CHANNEL_1) != HAL_OK)
 297              		.loc 1 72 24 is_stmt 0 view .LVU81
 298 006e 0423     		movs	r3, #4
 299 0070 0593     		str	r3, [sp, #20]
  73:Core/Src/tim.c ****   {
 300              		.loc 1 73 3 is_stmt 1 view .LVU82
  73:Core/Src/tim.c ****   {
 301              		.loc 1 73 7 is_stmt 0 view .LVU83
 302 0072 0DEB0301 		add	r1, sp, r3
 303 0076 1148     		ldr	r0, .L30
 304 0078 FFF7FEFF 		bl	HAL_TIM_PWM_ConfigChannel
 305              	.LVL10:
  73:Core/Src/tim.c ****   {
 306              		.loc 1 73 6 view .LVU84
 307 007c C0B9     		cbnz	r0, .L28
 308              	.L21:
  77:Core/Src/tim.c ****   {
 309              		.loc 1 77 3 is_stmt 1 view .LVU85
  77:Core/Src/tim.c ****   {
 310              		.loc 1 77 7 is_stmt 0 view .LVU86
 311 007e 0422     		movs	r2, #4
 312 0080 0DEB0201 		add	r1, sp, r2
 313 0084 0D48     		ldr	r0, .L30
 314 0086 FFF7FEFF 		bl	HAL_TIM_PWM_ConfigChannel
 315              	.LVL11:
  77:Core/Src/tim.c ****   {
 316              		.loc 1 77 6 view .LVU87
 317 008a A0B9     		cbnz	r0, .L29
 318              	.L22:
  84:Core/Src/tim.c **** 
 319              		.loc 1 84 3 is_stmt 1 view .LVU88
ARM GAS  C:\Users\ADMINI~1\AppData\Local\Temp\ccVh1Yxd.s 			page 10


 320 008c 0B48     		ldr	r0, .L30
 321 008e FFF7FEFF 		bl	HAL_TIM_MspPostInit
 322              	.LVL12:
  86:Core/Src/tim.c **** 
 323              		.loc 1 86 1 is_stmt 0 view .LVU89
 324 0092 0FB0     		add	sp, sp, #60
 325              	.LCFI8:
 326              		.cfi_remember_state
 327              		.cfi_def_cfa_offset 4
 328              		@ sp needed
 329 0094 5DF804FB 		ldr	pc, [sp], #4
 330              	.L24:
 331              	.LCFI9:
 332              		.cfi_restore_state
  52:Core/Src/tim.c ****   }
 333              		.loc 1 52 5 is_stmt 1 view .LVU90
 334 0098 FFF7FEFF 		bl	Error_Handler
 335              	.LVL13:
 336 009c CEE7     		b	.L17
 337              	.L25:
  57:Core/Src/tim.c ****   }
 338              		.loc 1 57 5 view .LVU91
 339 009e FFF7FEFF 		bl	Error_Handler
 340              	.LVL14:
 341 00a2 D3E7     		b	.L18
 342              	.L26:
  61:Core/Src/tim.c ****   }
 343              		.loc 1 61 5 view .LVU92
 344 00a4 FFF7FEFF 		bl	Error_Handler
 345              	.LVL15:
 346 00a8 D4E7     		b	.L19
 347              	.L27:
  67:Core/Src/tim.c ****   }
 348              		.loc 1 67 5 view .LVU93
 349 00aa FFF7FEFF 		bl	Error_Handler
 350              	.LVL16:
 351 00ae D9E7     		b	.L20
 352              	.L28:
  75:Core/Src/tim.c ****   }
 353              		.loc 1 75 5 view .LVU94
 354 00b0 FFF7FEFF 		bl	Error_Handler
 355              	.LVL17:
 356 00b4 E3E7     		b	.L21
 357              	.L29:
  79:Core/Src/tim.c ****   }
 358              		.loc 1 79 5 view .LVU95
 359 00b6 FFF7FEFF 		bl	Error_Handler
 360              	.LVL18:
 361 00ba E7E7     		b	.L22
 362              	.L31:
 363              		.align	2
 364              	.L30:
 365 00bc 00000000 		.word	.LANCHOR0
 366 00c0 00040040 		.word	1073742848
 367              		.cfi_endproc
 368              	.LFE134:
 370              		.section	.text.HAL_TIM_Base_MspDeInit,"ax",%progbits
ARM GAS  C:\Users\ADMINI~1\AppData\Local\Temp\ccVh1Yxd.s 			page 11


 371              		.align	1
 372              		.global	HAL_TIM_Base_MspDeInit
 373              		.syntax unified
 374              		.thumb
 375              		.thumb_func
 377              	HAL_TIM_Base_MspDeInit:
 378              	.LVL19:
 379              	.LFB137:
 131:Core/Src/tim.c **** 
 132:Core/Src/tim.c **** void HAL_TIM_Base_MspDeInit(TIM_HandleTypeDef* tim_baseHandle)
 133:Core/Src/tim.c **** {
 380              		.loc 1 133 1 view -0
 381              		.cfi_startproc
 382              		@ args = 0, pretend = 0, frame = 0
 383              		@ frame_needed = 0, uses_anonymous_args = 0
 384              		@ link register save eliminated.
 134:Core/Src/tim.c **** 
 135:Core/Src/tim.c ****   if(tim_baseHandle->Instance==TIM3)
 385              		.loc 1 135 3 view .LVU97
 386              		.loc 1 135 20 is_stmt 0 view .LVU98
 387 0000 0268     		ldr	r2, [r0]
 388              		.loc 1 135 5 view .LVU99
 389 0002 054B     		ldr	r3, .L35
 390 0004 9A42     		cmp	r2, r3
 391 0006 00D0     		beq	.L34
 392              	.L32:
 136:Core/Src/tim.c ****   {
 137:Core/Src/tim.c ****   /* USER CODE BEGIN TIM3_MspDeInit 0 */
 138:Core/Src/tim.c **** 
 139:Core/Src/tim.c ****   /* USER CODE END TIM3_MspDeInit 0 */
 140:Core/Src/tim.c ****     /* Peripheral clock disable */
 141:Core/Src/tim.c ****     __HAL_RCC_TIM3_CLK_DISABLE();
 142:Core/Src/tim.c ****   /* USER CODE BEGIN TIM3_MspDeInit 1 */
 143:Core/Src/tim.c **** 
 144:Core/Src/tim.c ****   /* USER CODE END TIM3_MspDeInit 1 */
 145:Core/Src/tim.c ****   }
 146:Core/Src/tim.c **** }
 393              		.loc 1 146 1 view .LVU100
 394 0008 7047     		bx	lr
 395              	.L34:
 141:Core/Src/tim.c ****   /* USER CODE BEGIN TIM3_MspDeInit 1 */
 396              		.loc 1 141 5 is_stmt 1 view .LVU101
 397 000a 044A     		ldr	r2, .L35+4
 398 000c 136C     		ldr	r3, [r2, #64]
 399 000e 23F00203 		bic	r3, r3, #2
 400 0012 1364     		str	r3, [r2, #64]
 401              		.loc 1 146 1 is_stmt 0 view .LVU102
 402 0014 F8E7     		b	.L32
 403              	.L36:
 404 0016 00BF     		.align	2
 405              	.L35:
 406 0018 00040040 		.word	1073742848
 407 001c 00380240 		.word	1073887232
 408              		.cfi_endproc
 409              	.LFE137:
 411              		.global	htim3
 412              		.section	.bss.htim3,"aw",%nobits
ARM GAS  C:\Users\ADMINI~1\AppData\Local\Temp\ccVh1Yxd.s 			page 12


 413              		.align	2
 414              		.set	.LANCHOR0,. + 0
 417              	htim3:
 418 0000 00000000 		.space	72
 418      00000000 
 418      00000000 
 418      00000000 
 418      00000000 
 419              		.text
 420              	.Letext0:
 421              		.file 2 "d:\\dev\\gnu arm embedded toolchain\\gcc-arm-none-eabi-10.3-2021.10\\arm-none-eabi\\inclu
 422              		.file 3 "d:\\dev\\gnu arm embedded toolchain\\gcc-arm-none-eabi-10.3-2021.10\\arm-none-eabi\\inclu
 423              		.file 4 "Drivers/CMSIS/Device/ST/STM32F4xx/Include/stm32f401xc.h"
 424              		.file 5 "Drivers/STM32F4xx_HAL_Driver/Inc/stm32f4xx_hal_def.h"
 425              		.file 6 "Drivers/STM32F4xx_HAL_Driver/Inc/stm32f4xx_hal_gpio.h"
 426              		.file 7 "Drivers/STM32F4xx_HAL_Driver/Inc/stm32f4xx_hal_dma.h"
 427              		.file 8 "Drivers/STM32F4xx_HAL_Driver/Inc/stm32f4xx_hal_tim.h"
 428              		.file 9 "Drivers/STM32F4xx_HAL_Driver/Inc/stm32f4xx_hal_tim_ex.h"
 429              		.file 10 "Core/Inc/main.h"
 430              		.file 11 "Core/Inc/tim.h"
ARM GAS  C:\Users\ADMINI~1\AppData\Local\Temp\ccVh1Yxd.s 			page 13

